target datalayout = "e-m:e-p270:32:32-p271:32:32-p272:64:64-i64:64-i128:128-f80:128-n8:16:32:64-S128"
target triple = "x86_64-pc-linux-gnu"

%struct.AVCodecContext = type { ptr, i32, i32, ptr, i32, i32, ptr, ptr, ptr, i64, i32, i32, ptr, i32, %struct.AVRational, %struct.AVRational, %struct.AVRational, i32, i32, i32, i32, i32, %struct.AVRational, i32, i32, i32, i32, i32, i32, i32, i32, i32, i32, i32, ptr, ptr, i32, float, float, float, float, float, float, float, float, float, i32, i32, i32, i32, i32, i32, i32, i32, i32, i32, i32, i32, ptr, ptr, ptr, i32, i32, i32, i32, i32, i32, i32, i32, i32, i32, %struct.AVChannelLayout, i32, i32, i32, i32, i32, i32, i32, i32, ptr, i32, i32, i32, float, float, i32, i32, i32, i32, i32, ptr, i64, i64, float, float, i32, i32, ptr, ptr, i32, i32, i32, i32, i32, ptr, ptr, ptr, ptr, i32, i32, [8 x i64], i32, i32, i32, i32, i32, i32, i32, ptr, ptr, i32, i32, i32, i32, i32, i32, i32, i32, i32, i32, ptr, ptr, i32, i32, ptr, ptr, ptr, ptr, i32, i32, i64, i32, i32, i64, ptr, i64, ptr, i32, ptr, i32 }
%struct.AVRational = type { i32, i32 }
%struct.AVChannelLayout = type { i32, i32, %union.anon.0, ptr }
%union.anon.0 = type { i64 }
%struct.RV60Context = type { ptr, %struct.VideoDSPContext, [3 x ptr], i32, i32, i32, i32, i32, i32, i32, i32, i32, i32, i32, i32, ptr, i32, ptr, i32, ptr, i32, ptr, ptr, [2 x i64], i64, [2 x i32], ptr, i32 }
%struct.VideoDSPContext = type { ptr, ptr }
%struct.BlockInfo = type { i32, %struct.MVInfo }
%struct.MVInfo = type { i32, %struct.MV, %struct.MV }
%struct.MV = type { i16, i16 }

@.str.3 = private unnamed_addr constant [30 x i8] c"changing dimensions to %dx%d\0A\00", align 1
@.str.4 = private unnamed_addr constant [72 x i8] c"unable to faithfully reproduce emulated edges; expect visual artefacts\0A\00", align 1

; Function Attrs: nounwind uwtable
define internal i32 @update_dimensions_clear_info(ptr noundef %0, i32 noundef %1, i32 noundef %2) #1 {
  %4 = alloca i32, align 4
  %5 = alloca ptr, align 8
  %6 = alloca i32, align 4
  %7 = alloca i32, align 4
  %8 = alloca i32, align 4
  %9 = alloca i32, align 4
  %10 = alloca i32, align 4
  %11 = alloca i32, align 4
  %12 = alloca i32, align 4
  %13 = alloca i32, align 4
  store ptr %0, ptr %5, align 8, !tbaa !29
  store i32 %1, ptr %6, align 4, !tbaa !36
  store i32 %2, ptr %7, align 4, !tbaa !36
  call void @llvm.lifetime.start.p0(i64 4, ptr %8) #11
  %14 = load i32, ptr %6, align 4, !tbaa !36
  %15 = load ptr, ptr %5, align 8, !tbaa !29
  %16 = getelementptr inbounds nuw %struct.RV60Context, ptr %15, i32 0, i32 0
  %17 = load ptr, ptr %16, align 8, !tbaa !31
  %18 = getelementptr inbounds nuw %struct.AVCodecContext, ptr %17, i32 0, i32 18
  %19 = load i32, ptr %18, align 8, !tbaa !102
  %20 = icmp ne i32 %14, %19
  br i1 %20, label %29, label %21

21:                                               ; preds = %3
  %22 = load i32, ptr %7, align 4, !tbaa !36
  %23 = load ptr, ptr %5, align 8, !tbaa !29
  %24 = getelementptr inbounds nuw %struct.RV60Context, ptr %23, i32 0, i32 0
  %25 = load ptr, ptr %24, align 8, !tbaa !31
  %26 = getelementptr inbounds nuw %struct.AVCodecContext, ptr %25, i32 0, i32 19
  %27 = load i32, ptr %26, align 4, !tbaa !103
  %28 = icmp ne i32 %22, %27
  br i1 %28, label %29, label %78

29:                                               ; preds = %21, %3
  %30 = load ptr, ptr %5, align 8, !tbaa !29
  %31 = getelementptr inbounds nuw %struct.RV60Context, ptr %30, i32 0, i32 0
  %32 = load ptr, ptr %31, align 8, !tbaa !31
  %33 = load i32, ptr %6, align 4, !tbaa !36
  %34 = load i32, ptr %7, align 4, !tbaa !36
  call void (ptr, i32, ptr, ...) @av_log(ptr noundef %32, i32 noundef 32, ptr noundef @.str.3, i32 noundef %33, i32 noundef %34)
  call void @llvm.lifetime.start.p0(i64 4, ptr %9) #11
  store i32 0, ptr %9, align 4, !tbaa !36
  br label %35

35:                                               ; preds = %46, %29
  %36 = load i32, ptr %9, align 4, !tbaa !36
  %37 = icmp slt i32 %36, 3
  br i1 %37, label %39, label %38

38:                                               ; preds = %35
  call void @llvm.lifetime.end.p0(i64 4, ptr %9) #11
  br label %49

39:                                               ; preds = %35
  %40 = load ptr, ptr %5, align 8, !tbaa !29
  %41 = getelementptr inbounds nuw %struct.RV60Context, ptr %40, i32 0, i32 2
  %42 = load i32, ptr %9, align 4, !tbaa !36
  %43 = sext i32 %42 to i64
  %44 = getelementptr inbounds [3 x ptr], ptr %41, i64 0, i64 %43
  %45 = load ptr, ptr %44, align 8, !tbaa !37
  call void @av_frame_unref(ptr noundef %45)
  br label %46

46:                                               ; preds = %39
  %47 = load i32, ptr %9, align 4, !tbaa !36
  %48 = add nsw i32 %47, 1
  store i32 %48, ptr %9, align 4, !tbaa !36
  br label %35, !llvm.loop !104

49:                                               ; preds = %38
  %50 = load ptr, ptr %5, align 8, !tbaa !29
  %51 = getelementptr inbounds nuw %struct.RV60Context, ptr %50, i32 0, i32 0
  %52 = load ptr, ptr %51, align 8, !tbaa !31
  %53 = load i32, ptr %6, align 4, !tbaa !36
  %54 = load i32, ptr %7, align 4, !tbaa !36
  %55 = call i32 @ff_set_dimensions(ptr noundef %52, i32 noundef %53, i32 noundef %54)
  store i32 %55, ptr %8, align 4, !tbaa !36
  %56 = icmp slt i32 %55, 0
  br i1 %56, label %57, label %59

57:                                               ; preds = %49
  %58 = load i32, ptr %8, align 4, !tbaa !36
  store i32 %58, ptr %4, align 4
  store i32 1, ptr %10, align 4
  br label %247

59:                                               ; preds = %49
  %60 = load ptr, ptr %5, align 8, !tbaa !29
  %61 = getelementptr inbounds nuw %struct.RV60Context, ptr %60, i32 0, i32 0
  %62 = load ptr, ptr %61, align 8, !tbaa !31
  %63 = getelementptr inbounds nuw %struct.AVCodecContext, ptr %62, i32 0, i32 18
  %64 = load i32, ptr %63, align 8, !tbaa !102
  %65 = icmp sle i32 %64, 64
  br i1 %65, label %73, label %66

66:                                               ; preds = %59
  %67 = load ptr, ptr %5, align 8, !tbaa !29
  %68 = getelementptr inbounds nuw %struct.RV60Context, ptr %67, i32 0, i32 0
  %69 = load ptr, ptr %68, align 8, !tbaa !31
  %70 = getelementptr inbounds nuw %struct.AVCodecContext, ptr %69, i32 0, i32 19
  %71 = load i32, ptr %70, align 4, !tbaa !103
  %72 = icmp sle i32 %71, 64
  br i1 %72, label %73, label %77

73:                                               ; preds = %66, %59
  %74 = load ptr, ptr %5, align 8, !tbaa !29
  %75 = getelementptr inbounds nuw %struct.RV60Context, ptr %74, i32 0, i32 0
  %76 = load ptr, ptr %75, align 8, !tbaa !31
  call void (ptr, i32, ptr, ...) @av_log(ptr noundef %76, i32 noundef 24, ptr noundef @.str.4)
  br label %77

77:                                               ; preds = %73, %66
  br label %78

78:                                               ; preds = %77, %21
  %79 = load i32, ptr %6, align 4, !tbaa !36
  %80 = add nsw i32 %79, 16
  %81 = sub nsw i32 %80, 1
  %82 = and i32 %81, -16
  %83 = load ptr, ptr %5, align 8, !tbaa !29
  %84 = getelementptr inbounds nuw %struct.RV60Context, ptr %83, i32 0, i32 11
  store i32 %82, ptr %84, align 8, !tbaa !105
  %85 = load i32, ptr %7, align 4, !tbaa !36
  %86 = add nsw i32 %85, 16
  %87 = sub nsw i32 %86, 1
  %88 = and i32 %87, -16
  %89 = load ptr, ptr %5, align 8, !tbaa !29
  %90 = getelementptr inbounds nuw %struct.RV60Context, ptr %89, i32 0, i32 12
  store i32 %88, ptr %90, align 4, !tbaa !106
  %91 = load i32, ptr %6, align 4, !tbaa !36
  %92 = add nsw i32 %91, 63
  %93 = ashr i32 %92, 6
  %94 = load ptr, ptr %5, align 8, !tbaa !29
  %95 = getelementptr inbounds nuw %struct.RV60Context, ptr %94, i32 0, i32 13
  store i32 %93, ptr %95, align 8, !tbaa !107
  %96 = load i32, ptr %7, align 4, !tbaa !36
  %97 = add nsw i32 %96, 63
  %98 = ashr i32 %97, 6
  %99 = load ptr, ptr %5, align 8, !tbaa !29
  %100 = getelementptr inbounds nuw %struct.RV60Context, ptr %99, i32 0, i32 14
  store i32 %98, ptr %100, align 4, !tbaa !57
  %101 = load ptr, ptr %5, align 8, !tbaa !29
  %102 = getelementptr inbounds nuw %struct.RV60Context, ptr %101, i32 0, i32 13
  %103 = load i32, ptr %102, align 8, !tbaa !107
  %104 = shl i32 %103, 3
  %105 = load ptr, ptr %5, align 8, !tbaa !29
  %106 = getelementptr inbounds nuw %struct.RV60Context, ptr %105, i32 0, i32 16
  store i32 %104, ptr %106, align 8, !tbaa !108
  %107 = load ptr, ptr %5, align 8, !tbaa !29
  %108 = getelementptr inbounds nuw %struct.RV60Context, ptr %107, i32 0, i32 13
  %109 = load i32, ptr %108, align 8, !tbaa !107
  %110 = shl i32 %109, 4
  %111 = load ptr, ptr %5, align 8, !tbaa !29
  %112 = getelementptr inbounds nuw %struct.RV60Context, ptr %111, i32 0, i32 18
  store i32 %110, ptr %112, align 8, !tbaa !109
  %113 = load ptr, ptr %5, align 8, !tbaa !29
  %114 = getelementptr inbounds nuw %struct.RV60Context, ptr %113, i32 0, i32 15
  %115 = load ptr, ptr %5, align 8, !tbaa !29
  %116 = getelementptr inbounds nuw %struct.RV60Context, ptr %115, i32 0, i32 14
  %117 = load i32, ptr %116, align 4, !tbaa !57
  %118 = sext i32 %117 to i64
  %119 = call i32 @av_reallocp_array(ptr noundef %114, i64 noundef %118, i64 noundef 24)
  store i32 %119, ptr %8, align 4, !tbaa !36
  %120 = icmp slt i32 %119, 0
  br i1 %120, label %121, label %123

121:                                              ; preds = %78
  %122 = load i32, ptr %8, align 4, !tbaa !36
  store i32 %122, ptr %4, align 4
  store i32 1, ptr %10, align 4
  br label %247

123:                                              ; preds = %78
  %124 = load ptr, ptr %5, align 8, !tbaa !29
  %125 = getelementptr inbounds nuw %struct.RV60Context, ptr %124, i32 0, i32 17
  %126 = load ptr, ptr %5, align 8, !tbaa !29
  %127 = getelementptr inbounds nuw %struct.RV60Context, ptr %126, i32 0, i32 16
  %128 = load i32, ptr %127, align 8, !tbaa !108
  %129 = load ptr, ptr %5, align 8, !tbaa !29
  %130 = getelementptr inbounds nuw %struct.RV60Context, ptr %129, i32 0, i32 14
  %131 = load i32, ptr %130, align 4, !tbaa !57
  %132 = shl i32 %131, 3
  %133 = mul nsw i32 %128, %132
  %134 = sext i32 %133 to i64
  %135 = call i32 @av_reallocp_array(ptr noundef %125, i64 noundef %134, i64 noundef 8)
  store i32 %135, ptr %8, align 4, !tbaa !36
  %136 = icmp slt i32 %135, 0
  br i1 %136, label %137, label %139

137:                                              ; preds = %123
  %138 = load i32, ptr %8, align 4, !tbaa !36
  store i32 %138, ptr %4, align 4
  store i32 1, ptr %10, align 4
  br label %247

139:                                              ; preds = %123
  %140 = load ptr, ptr %5, align 8, !tbaa !29
  %141 = getelementptr inbounds nuw %struct.RV60Context, ptr %140, i32 0, i32 19
  %142 = load ptr, ptr %5, align 8, !tbaa !29
  %143 = getelementptr inbounds nuw %struct.RV60Context, ptr %142, i32 0, i32 18
  %144 = load i32, ptr %143, align 8, !tbaa !109
  %145 = load ptr, ptr %5, align 8, !tbaa !29
  %146 = getelementptr inbounds nuw %struct.RV60Context, ptr %145, i32 0, i32 14
  %147 = load i32, ptr %146, align 4, !tbaa !57
  %148 = shl i32 %147, 4
  %149 = mul nsw i32 %144, %148
  %150 = sext i32 %149 to i64
  %151 = call i32 @av_reallocp_array(ptr noundef %141, i64 noundef %150, i64 noundef 16)
  store i32 %151, ptr %8, align 4, !tbaa !36
  %152 = icmp slt i32 %151, 0
  br i1 %152, label %153, label %155

153:                                              ; preds = %139
  %154 = load i32, ptr %8, align 4, !tbaa !36
  store i32 %154, ptr %4, align 4
  store i32 1, ptr %10, align 4
  br label %247

155:                                              ; preds = %139
  call void @llvm.lifetime.start.p0(i64 4, ptr %11) #11
  store i32 0, ptr %11, align 4, !tbaa !36
  br label %156

156:                                              ; preds = %192, %155
  %157 = load i32, ptr %11, align 4, !tbaa !36
  %158 = load ptr, ptr %5, align 8, !tbaa !29
  %159 = getelementptr inbounds nuw %struct.RV60Context, ptr %158, i32 0, i32 14
  %160 = load i32, ptr %159, align 4, !tbaa !57
  %161 = shl i32 %160, 4
  %162 = icmp slt i32 %157, %161
  br i1 %162, label %164, label %163

163:                                              ; preds = %156
  store i32 5, ptr %10, align 4
  call void @llvm.lifetime.end.p0(i64 4, ptr %11) #11
  br label %195

164:                                              ; preds = %156
  call void @llvm.lifetime.start.p0(i64 4, ptr %12) #11
  store i32 0, ptr %12, align 4, !tbaa !36
  br label %165

165:                                              ; preds = %188, %164
  %166 = load i32, ptr %12, align 4, !tbaa !36
  %167 = load ptr, ptr %5, align 8, !tbaa !29
  %168 = getelementptr inbounds nuw %struct.RV60Context, ptr %167, i32 0, i32 13
  %169 = load i32, ptr %168, align 8, !tbaa !107
  %170 = shl i32 %169, 4
  %171 = icmp slt i32 %166, %170
  br i1 %171, label %173, label %172

172:                                              ; preds = %165
  store i32 8, ptr %10, align 4
  call void @llvm.lifetime.end.p0(i64 4, ptr %12) #11
  br label %191

173:                                              ; preds = %165
  %174 = load ptr, ptr %5, align 8, !tbaa !29
  %175 = getelementptr inbounds nuw %struct.RV60Context, ptr %174, i32 0, i32 19
  %176 = load ptr, ptr %175, align 8, !tbaa !110
  %177 = load i32, ptr %11, align 4, !tbaa !36
  %178 = load ptr, ptr %5, align 8, !tbaa !29
  %179 = getelementptr inbounds nuw %struct.RV60Context, ptr %178, i32 0, i32 18
  %180 = load i32, ptr %179, align 8, !tbaa !109
  %181 = mul nsw i32 %177, %180
  %182 = load i32, ptr %12, align 4, !tbaa !36
  %183 = add nsw i32 %181, %182
  %184 = sext i32 %183 to i64
  %185 = getelementptr inbounds %struct.BlockInfo, ptr %176, i64 %184
  %186 = getelementptr inbounds nuw %struct.BlockInfo, ptr %185, i32 0, i32 1
  %187 = getelementptr inbounds nuw %struct.MVInfo, ptr %186, i32 0, i32 0
  store i32 0, ptr %187, align 4, !tbaa !111
  br label %188

188:                                              ; preds = %173
  %189 = load i32, ptr %12, align 4, !tbaa !36
  %190 = add nsw i32 %189, 1
  store i32 %190, ptr %12, align 4, !tbaa !36
  br label %165, !llvm.loop !116

191:                                              ; preds = %172
  br label %192

192:                                              ; preds = %191
  %193 = load i32, ptr %11, align 4, !tbaa !36
  %194 = add nsw i32 %193, 1
  store i32 %194, ptr %11, align 4, !tbaa !36
  br label %156, !llvm.loop !117

195:                                              ; preds = %163
  %196 = load ptr, ptr %5, align 8, !tbaa !29
  %197 = getelementptr inbounds nuw %struct.RV60Context, ptr %196, i32 0, i32 9
  %198 = load i32, ptr %197, align 8, !tbaa !98
  %199 = icmp ne i32 %198, 0
  br i1 %199, label %200, label %246

200:                                              ; preds = %195
  call void @llvm.lifetime.start.p0(i64 4, ptr %13) #11
  %201 = load ptr, ptr %5, align 8, !tbaa !29
  %202 = getelementptr inbounds nuw %struct.RV60Context, ptr %201, i32 0, i32 11
  %203 = load i32, ptr %202, align 8, !tbaa !105
  %204 = ashr i32 %203, 2
  %205 = load ptr, ptr %5, align 8, !tbaa !29
  %206 = getelementptr inbounds nuw %struct.RV60Context, ptr %205, i32 0, i32 20
  store i32 %204, ptr %206, align 8, !tbaa !118
  %207 = load ptr, ptr %5, align 8, !tbaa !29
  %208 = getelementptr inbounds nuw %struct.RV60Context, ptr %207, i32 0, i32 20
  %209 = load i32, ptr %208, align 8, !tbaa !118
  %210 = load ptr, ptr %5, align 8, !tbaa !29
  %211 = getelementptr inbounds nuw %struct.RV60Context, ptr %210, i32 0, i32 12
  %212 = load i32, ptr %211, align 4, !tbaa !106
  %213 = ashr i32 %212, 2
  %214 = mul nsw i32 %209, %213
  store i32 %214, ptr %13, align 4, !tbaa !36
  %215 = load ptr, ptr %5, align 8, !tbaa !29
  %216 = getelementptr inbounds nuw %struct.RV60Context, ptr %215, i32 0, i32 22
  %217 = load i32, ptr %13, align 4, !tbaa !36
  %218 = sext i32 %217 to i64
  %219 = call i32 @av_reallocp_array(ptr noundef %216, i64 noundef %218, i64 noundef 1)
  store i32 %219, ptr %8, align 4, !tbaa !36
  %220 = icmp slt i32 %219, 0
  br i1 %220, label %221, label %223

221:                                              ; preds = %200
  %222 = load i32, ptr %8, align 4, !tbaa !36
  store i32 %222, ptr %4, align 4
  store i32 1, ptr %10, align 4
  br label %243

223:                                              ; preds = %200
  %224 = load ptr, ptr %5, align 8, !tbaa !29
  %225 = getelementptr inbounds nuw %struct.RV60Context, ptr %224, i32 0, i32 21
  %226 = load i32, ptr %13, align 4, !tbaa !36
  %227 = sext i32 %226 to i64
  %228 = call i32 @av_reallocp_array(ptr noundef %225, i64 noundef %227, i64 noundef 1)
  store i32 %228, ptr %8, align 4, !tbaa !36
  %229 = icmp slt i32 %228, 0
  br i1 %229, label %230, label %232

230:                                              ; preds = %223
  %231 = load i32, ptr %8, align 4, !tbaa !36
  store i32 %231, ptr %4, align 4
  store i32 1, ptr %10, align 4
  br label %243

232:                                              ; preds = %223
  %233 = load ptr, ptr %5, align 8, !tbaa !29
  %234 = getelementptr inbounds nuw %struct.RV60Context, ptr %233, i32 0, i32 22
  %235 = load ptr, ptr %234, align 8, !tbaa !119
  %236 = load i32, ptr %13, align 4, !tbaa !36
  %237 = sext i32 %236 to i64
  call void @llvm.memset.p0.i64(ptr align 1 %235, i8 0, i64 %237, i1 false)
  %238 = load ptr, ptr %5, align 8, !tbaa !29
  %239 = getelementptr inbounds nuw %struct.RV60Context, ptr %238, i32 0, i32 21
  %240 = load ptr, ptr %239, align 8, !tbaa !120
  %241 = load i32, ptr %13, align 4, !tbaa !36
  %242 = sext i32 %241 to i64
  call void @llvm.memset.p0.i64(ptr align 1 %240, i8 0, i64 %242, i1 false)
  store i32 0, ptr %10, align 4
  br label %243

243:                                              ; preds = %232, %230, %221
  call void @llvm.lifetime.end.p0(i64 4, ptr %13) #11
  %244 = load i32, ptr %10, align 4
  switch i32 %244, label %247 [
    i32 0, label %245
  ]

245:                                              ; preds = %243
  br label %246

246:                                              ; preds = %245, %195
  store i32 0, ptr %4, align 4
  store i32 1, ptr %10, align 4
  br label %247

247:                                              ; preds = %246, %243, %153, %137, %121, %57
  call void @llvm.lifetime.end.p0(i64 4, ptr %8) #11
  %248 = load i32, ptr %4, align 4
  ret i32 %248
}