; Function Attrs: nounwind uwtable
define internal fastcc range(i32 -2147483648, 1) i32 @update_dimensions_clear_info(ptr noundef %0, i32 noundef %1, i32 noundef %2) unnamed_addr #1 {
  %4 = load ptr, ptr %0, align 8, !tbaa !27
  %5 = getelementptr inbounds nuw i8, ptr %4, i64 112
  %6 = load i32, ptr %5, align 8, !tbaa !97
  %.not = icmp eq i32 %1, %6
  br i1 %.not, label %7, label %10

7:                                                ; preds = %3
  %8 = getelementptr inbounds nuw i8, ptr %4, i64 116
  %9 = load i32, ptr %8, align 4, !tbaa !98
  %.not77 = icmp eq i32 %2, %9
  br i1 %.not77, label %29, label %10

10:                                               ; preds = %7, %3
  tail call void (ptr, i32, ptr, ...) @av_log(ptr noundef nonnull %4, i32 noundef 32, ptr noundef nonnull @.str.3, i32 noundef %1, i32 noundef %2) #16
  %11 = getelementptr inbounds nuw i8, ptr %0, i64 24
  br label %16

12:                                               ; preds = %16
  %13 = load ptr, ptr %0, align 8, !tbaa !27
  %14 = tail call i32 @ff_set_dimensions(ptr noundef %13, i32 noundef %1, i32 noundef %2) #16
  %15 = icmp slt i32 %14, 0
  br i1 %15, label %.thread, label %19

16:                                               ; preds = %10, %16
  %indvars.iv = phi i64 [ 0, %10 ], [ %indvars.iv.next, %16 ]
  %17 = getelementptr inbounds nuw [3 x ptr], ptr %11, i64 0, i64 %indvars.iv
  %18 = load ptr, ptr %17, align 8, !tbaa !35
  tail call void @av_frame_unref(ptr noundef %18) #16
  %indvars.iv.next = add nuw nsw i64 %indvars.iv, 1
  %exitcond.not = icmp eq i64 %indvars.iv.next, 3
  br i1 %exitcond.not, label %12, label %16, !llvm.loop !99

19:                                               ; preds = %12
  %20 = load ptr, ptr %0, align 8, !tbaa !27
  %21 = getelementptr inbounds nuw i8, ptr %20, i64 112
  %22 = load i32, ptr %21, align 8, !tbaa !97
  %23 = icmp slt i32 %22, 65
  br i1 %23, label %28, label %24

24:                                               ; preds = %19
  %25 = getelementptr inbounds nuw i8, ptr %20, i64 116
  %26 = load i32, ptr %25, align 4, !tbaa !98
  %27 = icmp slt i32 %26, 65
  br i1 %27, label %28, label %29

28:                                               ; preds = %24, %19
  tail call void (ptr, i32, ptr, ...) @av_log(ptr noundef nonnull %20, i32 noundef 24, ptr noundef nonnull @.str.4) #16
  br label %29

29:                                               ; preds = %24, %28, %7
  %30 = add nsw i32 %1, 15
  %31 = and i32 %30, -16
  %32 = getelementptr inbounds nuw i8, ptr %0, i64 80
  store i32 %31, ptr %32, align 8, !tbaa !100
  %33 = add nsw i32 %2, 15
  %34 = and i32 %33, -16
  %35 = getelementptr inbounds nuw i8, ptr %0, i64 84
  store i32 %34, ptr %35, align 4, !tbaa !101
  %36 = add nsw i32 %1, 63
  %37 = ashr i32 %36, 6
  %38 = getelementptr inbounds nuw i8, ptr %0, i64 88
  store i32 %37, ptr %38, align 8, !tbaa !102
  %39 = add nsw i32 %2, 63
  %40 = ashr i32 %39, 6
  %41 = getelementptr inbounds nuw i8, ptr %0, i64 92
  store i32 %40, ptr %41, align 4, !tbaa !66
  %42 = shl nsw i32 %37, 3
  %43 = getelementptr inbounds nuw i8, ptr %0, i64 104
  store i32 %42, ptr %43, align 8, !tbaa !103
  %44 = shl nsw i32 %37, 4
  %45 = getelementptr inbounds nuw i8, ptr %0, i64 120
  store i32 %44, ptr %45, align 8, !tbaa !104
  %46 = getelementptr inbounds nuw i8, ptr %0, i64 96
  %47 = sext i32 %40 to i64
  %48 = tail call i32 @av_reallocp_array(ptr noundef nonnull %46, i64 noundef %47, i64 noundef 24) #16
  %49 = icmp slt i32 %48, 0
  br i1 %49, label %.thread, label %50

50:                                               ; preds = %29
  %51 = getelementptr inbounds nuw i8, ptr %0, i64 112
  %52 = load i32, ptr %43, align 8, !tbaa !103
  %53 = load i32, ptr %41, align 4, !tbaa !66
  %54 = shl i32 %52, 3
  %55 = mul i32 %54, %53
  %56 = sext i32 %55 to i64
  %57 = tail call i32 @av_reallocp_array(ptr noundef nonnull %51, i64 noundef %56, i64 noundef 8) #16
  %58 = icmp slt i32 %57, 0
  br i1 %58, label %.thread, label %59

59:                                               ; preds = %50
  %60 = getelementptr inbounds nuw i8, ptr %0, i64 128
  %61 = load i32, ptr %45, align 8, !tbaa !104
  %62 = load i32, ptr %41, align 4, !tbaa !66
  %63 = shl i32 %61, 4
  %64 = mul i32 %63, %62
  %65 = sext i32 %64 to i64
  %66 = tail call i32 @av_reallocp_array(ptr noundef nonnull %60, i64 noundef %65, i64 noundef 16) #16
  %67 = icmp slt i32 %66, 0
  br i1 %67, label %.thread, label %.preheader81

.preheader81:                                     ; preds = %59
  %68 = load i32, ptr %41, align 4, !tbaa !66
  %69 = shl i32 %68, 4
  %70 = icmp sgt i32 %69, 0
  br i1 %70, label %.preheader.lr.ph, label %._crit_edge85

.preheader.lr.ph:                                 ; preds = %.preheader81
  %71 = load i32, ptr %38, align 8, !tbaa !102
  %72 = shl i32 %71, 4
  %73 = icmp sgt i32 %72, 0
  br i1 %73, label %.preheader.lr.ph.split.us, label %._crit_edge85

.preheader.lr.ph.split.us:                        ; preds = %.preheader.lr.ph
  %74 = load ptr, ptr %60, align 8, !tbaa !105
  %75 = load i32, ptr %45, align 8, !tbaa !104
  %76 = sext i32 %75 to i64
  %wide.trip.count95 = zext nneg i32 %69 to i64
  %wide.trip.count = zext nneg i32 %72 to i64
  br label %.preheader.us

.preheader.us:                                    ; preds = %._crit_edge.us, %.preheader.lr.ph.split.us
  %indvars.iv92 = phi i64 [ %indvars.iv.next93, %._crit_edge.us ], [ 0, %.preheader.lr.ph.split.us ]
  %77 = mul nsw i64 %indvars.iv92, %76
  br label %78

78:                                               ; preds = %.preheader.us, %78
  %indvars.iv88 = phi i64 [ 0, %.preheader.us ], [ %indvars.iv.next89, %78 ]
  %79 = add nsw i64 %77, %indvars.iv88
  %80 = getelementptr inbounds %struct.BlockInfo, ptr %74, i64 %79, i32 1
  store i32 0, ptr %80, align 4, !tbaa !106
  %indvars.iv.next89 = add nuw nsw i64 %indvars.iv88, 1
  %exitcond91.not = icmp eq i64 %indvars.iv.next89, %wide.trip.count
  br i1 %exitcond91.not, label %._crit_edge.us, label %78, !llvm.loop !111

._crit_edge.us:                                   ; preds = %78
  %indvars.iv.next93 = add nuw nsw i64 %indvars.iv92, 1
  %exitcond96.not = icmp eq i64 %indvars.iv.next93, %wide.trip.count95
  br i1 %exitcond96.not, label %._crit_edge85, label %.preheader.us, !llvm.loop !112

._crit_edge85:                                    ; preds = %._crit_edge.us, %.preheader.lr.ph, %.preheader81
  %81 = getelementptr inbounds nuw i8, ptr %0, i64 72
  %82 = load i32, ptr %81, align 8, !tbaa !55
  %.not78 = icmp eq i32 %82, 0
  br i1 %.not78, label %.thread, label %83

83:                                               ; preds = %._crit_edge85
  %84 = load i32, ptr %32, align 8, !tbaa !100
  %85 = ashr i32 %84, 2
  %86 = getelementptr inbounds nuw i8, ptr %0, i64 136
  store i32 %85, ptr %86, align 8, !tbaa !113
  %87 = load i32, ptr %35, align 4, !tbaa !101
  %88 = ashr i32 %87, 2
  %89 = mul nsw i32 %88, %85
  %90 = getelementptr inbounds nuw i8, ptr %0, i64 152
  %91 = sext i32 %89 to i64
  %92 = tail call i32 @av_reallocp_array(ptr noundef nonnull %90, i64 noundef %91, i64 noundef 1) #16
  %93 = icmp slt i32 %92, 0
  br i1 %93, label %.thread, label %94

94:                                               ; preds = %83
  %95 = getelementptr inbounds nuw i8, ptr %0, i64 144
  %96 = tail call i32 @av_reallocp_array(ptr noundef nonnull %95, i64 noundef %91, i64 noundef 1) #16
  %97 = icmp slt i32 %96, 0
  br i1 %97, label %.thread, label %98

98:                                               ; preds = %94
  %99 = load ptr, ptr %90, align 8, !tbaa !114
  tail call void @llvm.memset.p0.i64(ptr align 1 %99, i8 0, i64 %91, i1 false)
  %100 = load ptr, ptr %95, align 8, !tbaa !115
  tail call void @llvm.memset.p0.i64(ptr align 1 %100, i8 0, i64 %91, i1 false)
  br label %.thread

.thread:                                          ; preds = %94, %83, %._crit_edge85, %98, %59, %50, %29, %12
  %.0 = phi i32 [ %14, %12 ], [ %48, %29 ], [ %57, %50 ], [ %66, %59 ], [ 0, %98 ], [ 0, %._crit_edge85 ], [ %96, %94 ], [ %92, %83 ]
  ret i32 %.0
}